; Function Attrs: mustprogress nofree nosync nounwind willreturn memory(none) uwtable
define { i64, i32 } @_ZN4absl12lts_202407229FromUDateEd(double noundef %0) local_unnamed_addr #4 {
  %2 = alloca %"class.absl::lts_20240722::Duration", align 8
  call void @llvm.lifetime.start.p0(i64 12, ptr nonnull %2)
  store i64 0, ptr %2, align 8
  %.sroa.22.0..sroa_idx.i.i = getelementptr inbounds nuw i8, ptr %2, i64 8
  store i32 4000000, ptr %.sroa.22.0..sroa_idx.i.i, align 8
  %3 = call noundef nonnull align 4 dereferenceable(12) ptr @_ZN4absl12lts_202407228DurationmLEd(ptr noundef nonnull align 4 dereferenceable(12) %2, double noundef %0) #13
  %.sroa.03.0.copyload.i.i = load i64, ptr %3, align 4
  %.sroa.24.0..sroa_idx.i.i = getelementptr inbounds nuw i8, ptr %3, i64 8
  %.sroa.24.0.copyload.i.i = load i32, ptr %.sroa.24.0..sroa_idx.i.i, align 4, !tbaa !3
  %.fca.0.insert.i.i = insertvalue { i64, i32 } poison, i64 %.sroa.03.0.copyload.i.i, 0
  %.fca.1.insert.i.i = insertvalue { i64, i32 } %.fca.0.insert.i.i, i32 %.sroa.24.0.copyload.i.i, 1
  call void @llvm.lifetime.end.p0(i64 12, ptr nonnull %2)
  ret { i64, i32 } %.fca.1.insert.i.i
}